; Function Attrs: nofree nounwind uwtable
define void @Fraig_TablePrintStatsF(ptr noundef readonly captures(none) %0) local_unnamed_addr #9 {
  %2 = getelementptr inbounds nuw i8, ptr %0, i64 56
  %3 = load ptr, ptr %2, align 8, !tbaa !37
  %4 = getelementptr inbounds nuw i8, ptr %3, i64 8
  %5 = load i32, ptr %4, align 8, !tbaa !6
  %6 = getelementptr inbounds nuw i8, ptr %3, i64 12
  %7 = load i32, ptr %6, align 4, !tbaa !33
  %8 = tail call i32 (ptr, ...) @printf(ptr noundef nonnull dereferenceable(1) @.str.4, i32 noundef %5, i32 noundef %7)
  %9 = load i32, ptr %4, align 8, !tbaa !6
  %10 = icmp sgt i32 %9, 0
  br i1 %10, label %.lr.ph20, label %._crit_edge21

.lr.ph20:                                         ; preds = %1, %._crit_edge.thread
  %11 = phi i32 [ %18, %._crit_edge.thread ], [ %9, %1 ]
  %indvars.iv = phi i64 [ %indvars.iv.next, %._crit_edge.thread ], [ 0, %1 ]
  %12 = load ptr, ptr %3, align 8, !tbaa !13
  %13 = getelementptr inbounds nuw ptr, ptr %12, i64 %indvars.iv
  %.01314 = load ptr, ptr %13, align 8, !tbaa !29
  %.not15 = icmp eq ptr %.01314, null
  br i1 %.not15, label %._crit_edge.thread, label %.lr.ph

.lr.ph:                                           ; preds = %.lr.ph20, %.lr.ph
  %.01317 = phi ptr [ %.013, %.lr.ph ], [ %.01314, %.lr.ph20 ]
  %.016 = phi i32 [ %14, %.lr.ph ], [ 0, %.lr.ph20 ]
  %14 = add nuw nsw i32 %.016, 1
  %15 = getelementptr inbounds nuw i8, ptr %.01317, i64 64
  %.013 = load ptr, ptr %15, align 8, !tbaa !29
  %.not = icmp eq ptr %.013, null
  br i1 %.not, label %._crit_edge, label %.lr.ph, !llvm.loop !68

._crit_edge:                                      ; preds = %.lr.ph
  %.not24 = icmp eq i32 %.016, 0
  br i1 %.not24, label %._crit_edge.thread, label %16

16:                                               ; preds = %._crit_edge
  %17 = tail call i32 (ptr, ...) @printf(ptr noundef nonnull dereferenceable(1) @.str.2, i32 noundef %14)
  %.pre = load i32, ptr %4, align 8, !tbaa !6
  br label %._crit_edge.thread

._crit_edge.thread:                               ; preds = %.lr.ph20, %._crit_edge, %16
  %18 = phi i32 [ %11, %._crit_edge ], [ %.pre, %16 ], [ %11, %.lr.ph20 ]
  %indvars.iv.next = add nuw nsw i64 %indvars.iv, 1
  %19 = sext i32 %18 to i64
  %20 = icmp slt i64 %indvars.iv.next, %19
  br i1 %20, label %.lr.ph20, label %._crit_edge21, !llvm.loop !69

._crit_edge21:                                    ; preds = %._crit_edge.thread, %1
  %putchar = tail call i32 @putchar(i32 10)
  ret void
}